ccopy_reg
_reconstructor
p0
(cgoogle.oauth2.credentials
Credentials
p1
c__builtin__
object
p2
Ntp3
Rp4
(dp5
S'_quota_project_id'
p6
NsS'_token_uri'
p7
Vhttps://oauth2.googleapis.com/token
p8
sS'_client_secret'
p9
VFqhOOgON_5VaB5t5ZI0YDsH6
p10
sS'_id_token'
p11
NsS'token'
p12
Vya29.ImC9B47BClUykPtP09ojNvCJq3XTfu70OAQyfWJ26pesaKKvbe71D967gatsDVZ4FZ4LmaO-mREFHE83sq7yI4j4SqkAVsFv6eJaGJSZVJuEPQjq_rALmUSvkcf9GmGMFIU
p13
sS'_refresh_token'
p14
V1//0gJTXjSnw7lpUCgYIARAAGBASNwF-L9Ir0sOE-Ogla8la92V3ybG9W6ulFuHQm6mCp08CL3FwkS2Tlx12IkyD99XHhkj0_q3j4s8
p15
sS'_scopes'
p16
(lp17
S'https://www.googleapis.com/auth/drive'
p18
asS'_client_id'
p19
V504034225029-215rrtrraq8iafnvf8lk1csbdlbb9hsj.apps.googleusercontent.com
p20
sS'expiry'
p21
cdatetime
datetime
p22
(S'\x07\xe4\x02\x14\x08\x005\x04\xe9\xd0'
p23
tp24
Rp25
sb.